<?xml version="1.0" encoding="utf-8"?>
<?xml-stylesheet type="text/xsl" href="pdml2html.xsl"?>
<!-- You can find pdml2html.xsl in /usr/share/wireshark or at https://code.wireshark.org/review/gitweb?p=wireshark.git;a=blob_plain;f=pdml2html.xsl. -->
<pdml version="0" creator="wireshark/2.6.8" time="Sun Sep  8 22:16:13 2019" capture_file="/root/Source/Protocol-Dissector-Builder/UI/PacketPreview/packetpreview.ui">
<packet>
  <proto name="geninfo" pos="0" showname="General information" size="1703">
    <field name="num" pos="0" show="1" showname="Number" value="1" size="1703"/>
    <field name="len" pos="0" show="1703" showname="Frame Length" value="6a7" size="1703"/>
    <field name="caplen" pos="0" show="1703" showname="Captured Length" value="6a7" size="1703"/>
    <field name="timestamp" pos="0" show="Dec 31, 1969 17:00:00.000000000 MST" showname="Captured Time" value="0.000000000" size="1703"/>
  </proto>
  <proto name="frame" showname="Frame 1: 1703 bytes on wire (13624 bits), 1703 bytes captured (13624 bits)" size="1703" pos="0">
    <field name="frame.encap_type" showname="Encapsulation type: MIME (134)" size="0" pos="0" show="134"/>
    <field name="frame.number" showname="Frame Number: 1" size="0" pos="0" show="1"/>
    <field name="frame.len" showname="Frame Length: 1703 bytes (13624 bits)" size="0" pos="0" show="1703"/>
    <field name="frame.cap_len" showname="Capture Length: 1703 bytes (13624 bits)" size="0" pos="0" show="1703"/>
    <field name="frame.marked" showname="Frame is marked: False" size="0" pos="0" show="0"/>
    <field name="frame.ignored" showname="Frame is ignored: False" size="0" pos="0" show="0"/>
    <field name="frame.protocols" showname="Protocols in frame: mime_dlt:xml" size="0" pos="0" show="mime_dlt:xml"/>
  </proto>
  <proto name="mime_dlt" showname="MIME file" size="1703" pos="0"/>
  <proto name="xml" showname="eXtensible Markup Language" size="1703" pos="0">
    <field name="xml.xmlpi.xml" showname="&lt;?xml" size="38" pos="0" show="&lt;?xml version=&quot;1.0&quot; encoding=&quot;UTF-8&quot;?&gt;" value="3c3f786d6c2076657273696f6e3d22312e302220656e636f64696e673d225554462d38223f3e">
      <field name="xml.xmlpi.xml.version" showname="version=&quot;1.0&quot;" size="3" pos="15" show="1.0" value="312e30"/>
      <field name="xml.xmlpi.xml.encoding" showname="encoding=&quot;UTF-8&quot;" size="5" pos="30" show="UTF-8" value="5554462d38"/>
      <field name="" show="?&gt;" size="2" pos="36" value="3f3e"/>
    </field>
    <field name="xml.tag" showname="&lt;ui" size="1663" pos="39" show="&lt;ui version=&quot;4.0&quot;&gt;" value="3c75692076657273696f6e3d22342e30223e0a203c636c6173733e5061636b616765507265766965773c2f636c6173733e0a203c77696467657420636c6173733d225157696467657422206e616d653d225061636b61676550726576696577223e0a20203c70726f7065727479206e616d653d2267656f6d65747279223e0a2020203c726563743e0a202020203c783e303c2f783e0a202020203c793e303c2f793e0a202020203c77696474683e3838303c2f77696474683e0a202020203c6865696768743e3435343c2f6865696768743e0a2020203c2f726563743e0a20203c2f70726f70657274793e0a20203c70726f7065727479206e616d653d2277696e646f775469746c65223e0a2020203c737472696e673e5061636b616765507265766965773c2f737472696e673e0a20203c2f70726f70657274793e0a20203c77696467657420636c6173733d2251547265655669657722206e616d653d227472656556696577223e0a2020203c70726f7065727479206e616d653d2267656f6d65747279223e0a202020203c726563743e0a20202020203c783e303c2f783e0a20202020203c793e35303c2f793e0a20202020203c77696474683e3532313c2f77696474683e0a20202020203c6865696768743e3430313c2f6865696768743e0a202020203c2f726563743e0a2020203c2f70726f70657274793e0a20203c2f7769646765743e0a20203c77696467657420636c6173733d22514c6973745669657722206e616d653d226c69737456696577223e0a2020203c70726f7065727479206e616d653d22656e61626c6564223e0a202020203c626f6f6c3e66616c73653c2f626f6f6c3e0a2020203c2f70726f70657274793e0a2020203c70726f7065727479206e616d653d2267656f6d65747279223e0a202020203c726563743e0a20202020203c783e3533303c2f783e0a20202020203c793e35303c2f793e0a20202020203c77696474683e3332313c2f77696474683e0a20202020203c6865696768743e3338313c2f6865696768743e0a202020203c2f726563743e0a2020203c2f70726f70657274793e0a20203c2f7769646765743e0a20203c77696467657420636c6173733d225150757368427574746f6e22206e616d653d2270757368427574746f6e223e0a2020203c70726f7065727479206e616d653d2267656f6d65747279223e0a202020203c726563743e0a20202020203c783e303c2f783e0a20202020203c793e303c2f793e0a20202020203c77696474683e38333c2f77696474683e0a20202020203c6865696768743e32353c2f6865696768743e0a202020203c2f726563743e0a2020203c2f70726f70657274793e0a2020203c70726f7065727479206e616d653d2274657874223e0a202020203c737472696e673e46696c653c2f737472696e673e0a2020203c2f70726f70657274793e0a20203c2f7769646765743e0a20203c77696467657420636c6173733d22514c6162656c22206e616d653d226c6162656c223e0a2020203c70726f7065727479206e616d653d2267656f6d65747279223e0a202020203c726563743e0a20202020203c783e3533303c2f783e0a20202020203c793e33303c2f793e0a20202020203c77696474683e3133313c2f77696474683e0a20202020203c6865696768743e31373c2f6865696768743e0a202020203c2f726563743e0a2020203c2f70726f70657274793e0a2020203c70726f7065727479206e616d653d2274657874223e0a202020203c737472696e673e44697373656374656420446174613c2f737472696e673e0a2020203c2f70726f70657274793e0a20203c2f7769646765743e0a20203c77696467657420636c6173733d22514c6162656c22206e616d653d226c6162656c5f32223e0a2020203c70726f7065727479206e616d653d2267656f6d65747279223e0a202020203c726563743e0a20202020203c783e303c2f783e0a20202020203c793e33303c2f793e0a20202020203c77696474683e3130313c2f77696474683e0a20202020203c6865696768743e31373c2f6865696768743e0a202020203c2f726563743e0a2020203c2f70726f70657274793e0a2020203c70726f7065727479206e616d653d2274657874223e0a202020203c737472696e673e5061636b65742053747265616d3c2f737472696e673e0a2020203c2f70726f70657274793e0a20203c2f7769646765743e0a203c2f7769646765743e0a203c7265736f75726365732f3e0a203c636f6e6e656374696f6e732f3e0a3c2f75693e">
      <field name="xml.attribute" showname="version=&quot;4.0&quot;&gt;" size="13" pos="43" show="version=&quot;4.0&quot;" value="76657273696f6e3d22342e3022"/>
      <field name="xml.tag" showname="&lt;class&gt;" size="29" pos="59" show="&lt;class&gt;" value="3c636c6173733e5061636b616765507265766965773c2f636c6173733e">
        <field name="xml.cdata" showname="PackagePreview" size="14" pos="66" show="PackagePreview" value="5061636b61676550726576696577"/>
        <field name="" show="&lt;/class&gt;" size="8" pos="80" value="3c2f636c6173733e"/>
      </field>
      <field name="xml.tag" showname="&lt;widget" size="1576" pos="90" show="&lt;widget class=&quot;QWidget&quot; name=&quot;PackagePreview&quot;&gt;" value="3c77696467657420636c6173733d225157696467657422206e616d653d225061636b61676550726576696577223e0a20203c70726f7065727479206e616d653d2267656f6d65747279223e0a2020203c726563743e0a202020203c783e303c2f783e0a202020203c793e303c2f793e0a202020203c77696474683e3838303c2f77696474683e0a202020203c6865696768743e3435343c2f6865696768743e0a2020203c2f726563743e0a20203c2f70726f70657274793e0a20203c70726f7065727479206e616d653d2277696e646f775469746c65223e0a2020203c737472696e673e5061636b616765507265766965773c2f737472696e673e0a20203c2f70726f70657274793e0a20203c77696467657420636c6173733d2251547265655669657722206e616d653d227472656556696577223e0a2020203c70726f7065727479206e616d653d2267656f6d65747279223e0a202020203c726563743e0a20202020203c783e303c2f783e0a20202020203c793e35303c2f793e0a20202020203c77696474683e3532313c2f77696474683e0a20202020203c6865696768743e3430313c2f6865696768743e0a202020203c2f726563743e0a2020203c2f70726f70657274793e0a20203c2f7769646765743e0a20203c77696467657420636c6173733d22514c6973745669657722206e616d653d226c69737456696577223e0a2020203c70726f7065727479206e616d653d22656e61626c6564223e0a202020203c626f6f6c3e66616c73653c2f626f6f6c3e0a2020203c2f70726f70657274793e0a2020203c70726f7065727479206e616d653d2267656f6d65747279223e0a202020203c726563743e0a20202020203c783e3533303c2f783e0a20202020203c793e35303c2f793e0a20202020203c77696474683e3332313c2f77696474683e0a20202020203c6865696768743e3338313c2f6865696768743e0a202020203c2f726563743e0a2020203c2f70726f70657274793e0a20203c2f7769646765743e0a20203c77696467657420636c6173733d225150757368427574746f6e22206e616d653d2270757368427574746f6e223e0a2020203c70726f7065727479206e616d653d2267656f6d65747279223e0a202020203c726563743e0a20202020203c783e303c2f783e0a20202020203c793e303c2f793e0a20202020203c77696474683e38333c2f77696474683e0a20202020203c6865696768743e32353c2f6865696768743e0a202020203c2f726563743e0a2020203c2f70726f70657274793e0a2020203c70726f7065727479206e616d653d2274657874223e0a202020203c737472696e673e46696c653c2f737472696e673e0a2020203c2f70726f70657274793e0a20203c2f7769646765743e0a20203c77696467657420636c6173733d22514c6162656c22206e616d653d226c6162656c223e0a2020203c70726f7065727479206e616d653d2267656f6d65747279223e0a202020203c726563743e0a20202020203c783e3533303c2f783e0a20202020203c793e33303c2f793e0a20202020203c77696474683e3133313c2f77696474683e0a20202020203c6865696768743e31373c2f6865696768743e0a202020203c2f726563743e0a2020203c2f70726f70657274793e0a2020203c70726f7065727479206e616d653d2274657874223e0a202020203c737472696e673e44697373656374656420446174613c2f737472696e673e0a2020203c2f70726f70657274793e0a20203c2f7769646765743e0a20203c77696467657420636c6173733d22514c6162656c22206e616d653d226c6162656c5f32223e0a2020203c70726f7065727479206e616d653d2267656f6d65747279223e0a202020203c726563743e0a20202020203c783e303c2f783e0a20202020203c793e33303c2f793e0a20202020203c77696474683e3130313c2f77696474683e0a20202020203c6865696768743e31373c2f6865696768743e0a202020203c2f726563743e0a2020203c2f70726f70657274793e0a2020203c70726f7065727479206e616d653d2274657874223e0a202020203c737472696e673e5061636b65742053747265616d3c2f737472696e673e0a2020203c2f70726f70657274793e0a20203c2f7769646765743e0a203c2f7769646765743e">
        <field name="xml.attribute" showname="class=&quot;QWidget&quot;" size="15" pos="98" show="class=&quot;QWidget&quot;" value="636c6173733d225157696467657422"/>
        <field name="xml.attribute" showname="name=&quot;PackagePreview&quot;&gt;" size="21" pos="114" show="name=&quot;PackagePreview&quot;" value="6e616d653d225061636b6167655072657669657722"/>
        <field name="xml.tag" showname="&lt;property" size="135" pos="139" show="&lt;property name=&quot;geometry&quot;&gt;" value="3c70726f7065727479206e616d653d2267656f6d65747279223e0a2020203c726563743e0a202020203c783e303c2f783e0a202020203c793e303c2f793e0a202020203c77696474683e3838303c2f77696474683e0a202020203c6865696768743e3435343c2f6865696768743e0a2020203c2f726563743e0a20203c2f70726f70657274793e">
          <field name="xml.attribute" showname="name=&quot;geometry&quot;&gt;" size="15" pos="149" show="name=&quot;geometry&quot;" value="6e616d653d2267656f6d6574727922"/>
          <field name="xml.tag" showname="&lt;rect&gt;" size="91" pos="169" show="&lt;rect&gt;" value="3c726563743e0a202020203c783e303c2f783e0a202020203c793e303c2f793e0a202020203c77696474683e3838303c2f77696474683e0a202020203c6865696768743e3435343c2f6865696768743e0a2020203c2f726563743e">
            <field name="xml.tag" showname="&lt;x&gt;" size="8" pos="180" show="&lt;x&gt;" value="3c783e303c2f783e">
              <field name="xml.cdata" showname="0" size="1" pos="183" show="0" value="30"/>
              <field name="" show="&lt;/x&gt;" size="4" pos="184" value="3c2f783e"/>
            </field>
            <field name="xml.tag" showname="&lt;y&gt;" size="8" pos="193" show="&lt;y&gt;" value="3c793e303c2f793e">
              <field name="xml.cdata" showname="0" size="1" pos="196" show="0" value="30"/>
              <field name="" show="&lt;/y&gt;" size="4" pos="197" value="3c2f793e"/>
            </field>
            <field name="xml.tag" showname="&lt;width&gt;" size="18" pos="206" show="&lt;width&gt;" value="3c77696474683e3838303c2f77696474683e">
              <field name="xml.cdata" showname="880" size="3" pos="213" show="880" value="383830"/>
              <field name="" show="&lt;/width&gt;" size="8" pos="216" value="3c2f77696474683e"/>
            </field>
            <field name="xml.tag" showname="&lt;height&gt;" size="20" pos="229" show="&lt;height&gt;" value="3c6865696768743e3435343c2f6865696768743e">
              <field name="xml.cdata" showname="454" size="3" pos="237" show="454" value="343534"/>
              <field name="" show="&lt;/height&gt;" size="9" pos="240" value="3c2f6865696768743e"/>
            </field>
            <field name="" show="&lt;/rect&gt;" size="7" pos="253" value="3c2f726563743e"/>
          </field>
          <field name="" show="&lt;/property&gt;" size="11" pos="263" value="3c2f70726f70657274793e"/>
        </field>
        <field name="xml.tag" showname="&lt;property" size="78" pos="277" show="&lt;property name=&quot;windowTitle&quot;&gt;" value="3c70726f7065727479206e616d653d2277696e646f775469746c65223e0a2020203c737472696e673e5061636b616765507265766965773c2f737472696e673e0a20203c2f70726f70657274793e">
          <field name="xml.attribute" showname="name=&quot;windowTitle&quot;&gt;" size="18" pos="287" show="name=&quot;windowTitle&quot;" value="6e616d653d2277696e646f775469746c6522"/>
          <field name="xml.tag" showname="&lt;string&gt;" size="31" pos="310" show="&lt;string&gt;" value="3c737472696e673e5061636b616765507265766965773c2f737472696e673e">
            <field name="xml.cdata" showname="PackagePreview" size="14" pos="318" show="PackagePreview" value="5061636b61676550726576696577"/>
            <field name="" show="&lt;/string&gt;" size="9" pos="332" value="3c2f737472696e673e"/>
          </field>
          <field name="" show="&lt;/property&gt;" size="11" pos="344" value="3c2f70726f70657274793e"/>
        </field>
        <field name="xml.tag" showname="&lt;widget" size="201" pos="358" show="&lt;widget class=&quot;QTreeView&quot; name=&quot;treeView&quot;&gt;" value="3c77696467657420636c6173733d2251547265655669657722206e616d653d227472656556696577223e0a2020203c70726f7065727479206e616d653d2267656f6d65747279223e0a202020203c726563743e0a20202020203c783e303c2f783e0a20202020203c793e35303c2f793e0a20202020203c77696474683e3532313c2f77696474683e0a20202020203c6865696768743e3430313c2f6865696768743e0a202020203c2f726563743e0a2020203c2f70726f70657274793e0a20203c2f7769646765743e">
          <field name="xml.attribute" showname="class=&quot;QTreeView&quot;" size="17" pos="366" show="class=&quot;QTreeView&quot;" value="636c6173733d2251547265655669657722"/>
          <field name="xml.attribute" showname="name=&quot;treeView&quot;&gt;" size="15" pos="384" show="name=&quot;treeView&quot;" value="6e616d653d22747265655669657722"/>
          <field name="xml.tag" showname="&lt;property" size="143" pos="404" show="&lt;property name=&quot;geometry&quot;&gt;" value="3c70726f7065727479206e616d653d2267656f6d65747279223e0a202020203c726563743e0a20202020203c783e303c2f783e0a20202020203c793e35303c2f793e0a20202020203c77696474683e3532313c2f77696474683e0a20202020203c6865696768743e3430313c2f6865696768743e0a202020203c2f726563743e0a2020203c2f70726f70657274793e">
            <field name="xml.attribute" showname="name=&quot;geometry&quot;&gt;" size="15" pos="414" show="name=&quot;geometry&quot;" value="6e616d653d2267656f6d6574727922"/>
            <field name="xml.tag" showname="&lt;rect&gt;" size="97" pos="435" show="&lt;rect&gt;" value="3c726563743e0a20202020203c783e303c2f783e0a20202020203c793e35303c2f793e0a20202020203c77696474683e3532313c2f77696474683e0a20202020203c6865696768743e3430313c2f6865696768743e0a202020203c2f726563743e">
              <field name="xml.tag" showname="&lt;x&gt;" size="8" pos="447" show="&lt;x&gt;" value="3c783e303c2f783e">
                <field name="xml.cdata" showname="0" size="1" pos="450" show="0" value="30"/>
                <field name="" show="&lt;/x&gt;" size="4" pos="451" value="3c2f783e"/>
              </field>
              <field name="xml.tag" showname="&lt;y&gt;" size="9" pos="461" show="&lt;y&gt;" value="3c793e35303c2f793e">
                <field name="xml.cdata" showname="50" size="2" pos="464" show="50" value="3530"/>
                <field name="" show="&lt;/y&gt;" size="4" pos="466" value="3c2f793e"/>
              </field>
              <field name="xml.tag" showname="&lt;width&gt;" size="18" pos="476" show="&lt;width&gt;" value="3c77696474683e3532313c2f77696474683e">
                <field name="xml.cdata" showname="521" size="3" pos="483" show="521" value="353231"/>
                <field name="" show="&lt;/width&gt;" size="8" pos="486" value="3c2f77696474683e"/>
              </field>
              <field name="xml.tag" showname="&lt;height&gt;" size="20" pos="500" show="&lt;height&gt;" value="3c6865696768743e3430313c2f6865696768743e">
                <field name="xml.cdata" showname="401" size="3" pos="508" show="401" value="343031"/>
                <field name="" show="&lt;/height&gt;" size="9" pos="511" value="3c2f6865696768743e"/>
              </field>
              <field name="" show="&lt;/rect&gt;" size="7" pos="525" value="3c2f726563743e"/>
            </field>
            <field name="" show="&lt;/property&gt;" size="11" pos="536" value="3c2f70726f70657274793e"/>
          </field>
          <field name="" show="&lt;/widget&gt;" size="9" pos="550" value="3c2f7769646765743e"/>
        </field>
        <field name="xml.tag" showname="&lt;widget" size="270" pos="562" show="&lt;widget class=&quot;QListView&quot; name=&quot;listView&quot;&gt;" value="3c77696467657420636c6173733d22514c6973745669657722206e616d653d226c69737456696577223e0a2020203c70726f7065727479206e616d653d22656e61626c6564223e0a202020203c626f6f6c3e66616c73653c2f626f6f6c3e0a2020203c2f70726f70657274793e0a2020203c70726f7065727479206e616d653d2267656f6d65747279223e0a202020203c726563743e0a20202020203c783e3533303c2f783e0a20202020203c793e35303c2f793e0a20202020203c77696474683e3332313c2f77696474683e0a20202020203c6865696768743e3338313c2f6865696768743e0a202020203c2f726563743e0a2020203c2f70726f70657274793e0a20203c2f7769646765743e">
          <field name="xml.attribute" showname="class=&quot;QListView&quot;" size="17" pos="570" show="class=&quot;QListView&quot;" value="636c6173733d22514c6973745669657722"/>
          <field name="xml.attribute" showname="name=&quot;listView&quot;&gt;" size="15" pos="588" show="name=&quot;listView&quot;" value="6e616d653d226c6973745669657722"/>
          <field name="xml.tag" showname="&lt;property" size="63" pos="608" show="&lt;property name=&quot;enabled&quot;&gt;" value="3c70726f7065727479206e616d653d22656e61626c6564223e0a202020203c626f6f6c3e66616c73653c2f626f6f6c3e0a2020203c2f70726f70657274793e">
            <field name="xml.attribute" showname="name=&quot;enabled&quot;&gt;" size="14" pos="618" show="name=&quot;enabled&quot;" value="6e616d653d22656e61626c656422"/>
            <field name="xml.tag" showname="&lt;bool&gt;" size="18" pos="638" show="&lt;bool&gt;" value="3c626f6f6c3e66616c73653c2f626f6f6c3e">
              <field name="xml.cdata" showname="false" size="5" pos="644" show="false" value="66616c7365"/>
              <field name="" show="&lt;/bool&gt;" size="7" pos="649" value="3c2f626f6f6c3e"/>
            </field>
            <field name="" show="&lt;/property&gt;" size="11" pos="660" value="3c2f70726f70657274793e"/>
          </field>
          <field name="xml.tag" showname="&lt;property" size="145" pos="675" show="&lt;property name=&quot;geometry&quot;&gt;" value="3c70726f7065727479206e616d653d2267656f6d65747279223e0a202020203c726563743e0a20202020203c783e3533303c2f783e0a20202020203c793e35303c2f793e0a20202020203c77696474683e3332313c2f77696474683e0a20202020203c6865696768743e3338313c2f6865696768743e0a202020203c2f726563743e0a2020203c2f70726f70657274793e">
            <field name="xml.attribute" showname="name=&quot;geometry&quot;&gt;" size="15" pos="685" show="name=&quot;geometry&quot;" value="6e616d653d2267656f6d6574727922"/>
            <field name="xml.tag" showname="&lt;rect&gt;" size="99" pos="706" show="&lt;rect&gt;" value="3c726563743e0a20202020203c783e3533303c2f783e0a20202020203c793e35303c2f793e0a20202020203c77696474683e3332313c2f77696474683e0a20202020203c6865696768743e3338313c2f6865696768743e0a202020203c2f726563743e">
              <field name="xml.tag" showname="&lt;x&gt;" size="10" pos="718" show="&lt;x&gt;" value="3c783e3533303c2f783e">
                <field name="xml.cdata" showname="530" size="3" pos="721" show="530" value="353330"/>
                <field name="" show="&lt;/x&gt;" size="4" pos="724" value="3c2f783e"/>
              </field>
              <field name="xml.tag" showname="&lt;y&gt;" size="9" pos="734" show="&lt;y&gt;" value="3c793e35303c2f793e">
                <field name="xml.cdata" showname="50" size="2" pos="737" show="50" value="3530"/>
                <field name="" show="&lt;/y&gt;" size="4" pos="739" value="3c2f793e"/>
              </field>
              <field name="xml.tag" showname="&lt;width&gt;" size="18" pos="749" show="&lt;width&gt;" value="3c77696474683e3332313c2f77696474683e">
                <field name="xml.cdata" showname="321" size="3" pos="756" show="321" value="333231"/>
                <field name="" show="&lt;/width&gt;" size="8" pos="759" value="3c2f77696474683e"/>
              </field>
              <field name="xml.tag" showname="&lt;height&gt;" size="20" pos="773" show="&lt;height&gt;" value="3c6865696768743e3338313c2f6865696768743e">
                <field name="xml.cdata" showname="381" size="3" pos="781" show="381" value="333831"/>
                <field name="" show="&lt;/height&gt;" size="9" pos="784" value="3c2f6865696768743e"/>
              </field>
              <field name="" show="&lt;/rect&gt;" size="7" pos="798" value="3c2f726563743e"/>
            </field>
            <field name="" show="&lt;/property&gt;" size="11" pos="809" value="3c2f70726f70657274793e"/>
          </field>
          <field name="" show="&lt;/widget&gt;" size="9" pos="823" value="3c2f7769646765743e"/>
        </field>
        <field name="xml.tag" showname="&lt;widget" size="269" pos="835" show="&lt;widget class=&quot;QPushButton&quot; name=&quot;pushButton&quot;&gt;" value="3c77696467657420636c6173733d225150757368427574746f6e22206e616d653d2270757368427574746f6e223e0a2020203c70726f7065727479206e616d653d2267656f6d65747279223e0a202020203c726563743e0a20202020203c783e303c2f783e0a20202020203c793e303c2f793e0a20202020203c77696474683e38333c2f77696474683e0a20202020203c6865696768743e32353c2f6865696768743e0a202020203c2f726563743e0a2020203c2f70726f70657274793e0a2020203c70726f7065727479206e616d653d2274657874223e0a202020203c737472696e673e46696c653c2f737472696e673e0a2020203c2f70726f70657274793e0a20203c2f7769646765743e">
          <field name="xml.attribute" showname="class=&quot;QPushButton&quot;" size="19" pos="843" show="class=&quot;QPushButton&quot;" value="636c6173733d225150757368427574746f6e22"/>
          <field name="xml.attribute" showname="name=&quot;pushButton&quot;&gt;" size="17" pos="863" show="name=&quot;pushButton&quot;" value="6e616d653d2270757368427574746f6e22"/>
          <field name="xml.tag" showname="&lt;property" size="140" pos="885" show="&lt;property name=&quot;geometry&quot;&gt;" value="3c70726f7065727479206e616d653d2267656f6d65747279223e0a202020203c726563743e0a20202020203c783e303c2f783e0a20202020203c793e303c2f793e0a20202020203c77696474683e38333c2f77696474683e0a20202020203c6865696768743e32353c2f6865696768743e0a202020203c2f726563743e0a2020203c2f70726f70657274793e">
            <field name="xml.attribute" showname="name=&quot;geometry&quot;&gt;" size="15" pos="895" show="name=&quot;geometry&quot;" value="6e616d653d2267656f6d6574727922"/>
            <field name="xml.tag" showname="&lt;rect&gt;" size="94" pos="916" show="&lt;rect&gt;" value="3c726563743e0a20202020203c783e303c2f783e0a20202020203c793e303c2f793e0a20202020203c77696474683e38333c2f77696474683e0a20202020203c6865696768743e32353c2f6865696768743e0a202020203c2f726563743e">
              <field name="xml.tag" showname="&lt;x&gt;" size="8" pos="928" show="&lt;x&gt;" value="3c783e303c2f783e">
                <field name="xml.cdata" showname="0" size="1" pos="931" show="0" value="30"/>
                <field name="" show="&lt;/x&gt;" size="4" pos="932" value="3c2f783e"/>
              </field>
              <field name="xml.tag" showname="&lt;y&gt;" size="8" pos="942" show="&lt;y&gt;" value="3c793e303c2f793e">
                <field name="xml.cdata" showname="0" size="1" pos="945" show="0" value="30"/>
                <field name="" show="&lt;/y&gt;" size="4" pos="946" value="3c2f793e"/>
              </field>
              <field name="xml.tag" showname="&lt;width&gt;" size="17" pos="956" show="&lt;width&gt;" value="3c77696474683e38333c2f77696474683e">
                <field name="xml.cdata" showname="83" size="2" pos="963" show="83" value="3833"/>
                <field name="" show="&lt;/width&gt;" size="8" pos="965" value="3c2f77696474683e"/>
              </field>
              <field name="xml.tag" showname="&lt;height&gt;" size="19" pos="979" show="&lt;height&gt;" value="3c6865696768743e32353c2f6865696768743e">
                <field name="xml.cdata" showname="25" size="2" pos="987" show="25" value="3235"/>
                <field name="" show="&lt;/height&gt;" size="9" pos="989" value="3c2f6865696768743e"/>
              </field>
              <field name="" show="&lt;/rect&gt;" size="7" pos="1003" value="3c2f726563743e"/>
            </field>
            <field name="" show="&lt;/property&gt;" size="11" pos="1014" value="3c2f70726f70657274793e"/>
          </field>
          <field name="xml.tag" showname="&lt;property" size="63" pos="1029" show="&lt;property name=&quot;text&quot;&gt;" value="3c70726f7065727479206e616d653d2274657874223e0a202020203c737472696e673e46696c653c2f737472696e673e0a2020203c2f70726f70657274793e">
            <field name="xml.attribute" showname="name=&quot;text&quot;&gt;" size="11" pos="1039" show="name=&quot;text&quot;" value="6e616d653d227465787422"/>
            <field name="xml.tag" showname="&lt;string&gt;" size="21" pos="1056" show="&lt;string&gt;" value="3c737472696e673e46696c653c2f737472696e673e">
              <field name="xml.cdata" showname="File" size="4" pos="1064" show="File" value="46696c65"/>
              <field name="" show="&lt;/string&gt;" size="9" pos="1068" value="3c2f737472696e673e"/>
            </field>
            <field name="" show="&lt;/property&gt;" size="11" pos="1081" value="3c2f70726f70657274793e"/>
          </field>
          <field name="" show="&lt;/widget&gt;" size="9" pos="1095" value="3c2f7769646765743e"/>
        </field>
        <field name="xml.tag" showname="&lt;widget" size="273" pos="1107" show="&lt;widget class=&quot;QLabel&quot; name=&quot;label&quot;&gt;" value="3c77696467657420636c6173733d22514c6162656c22206e616d653d226c6162656c223e0a2020203c70726f7065727479206e616d653d2267656f6d65747279223e0a202020203c726563743e0a20202020203c783e3533303c2f783e0a20202020203c793e33303c2f793e0a20202020203c77696474683e3133313c2f77696474683e0a20202020203c6865696768743e31373c2f6865696768743e0a202020203c2f726563743e0a2020203c2f70726f70657274793e0a2020203c70726f7065727479206e616d653d2274657874223e0a202020203c737472696e673e44697373656374656420446174613c2f737472696e673e0a2020203c2f70726f70657274793e0a20203c2f7769646765743e">
          <field name="xml.attribute" showname="class=&quot;QLabel&quot;" size="14" pos="1115" show="class=&quot;QLabel&quot;" value="636c6173733d22514c6162656c22"/>
          <field name="xml.attribute" showname="name=&quot;label&quot;&gt;" size="12" pos="1130" show="name=&quot;label&quot;" value="6e616d653d226c6162656c22"/>
          <field name="xml.tag" showname="&lt;property" size="144" pos="1147" show="&lt;property name=&quot;geometry&quot;&gt;" value="3c70726f7065727479206e616d653d2267656f6d65747279223e0a202020203c726563743e0a20202020203c783e3533303c2f783e0a20202020203c793e33303c2f793e0a20202020203c77696474683e3133313c2f77696474683e0a20202020203c6865696768743e31373c2f6865696768743e0a202020203c2f726563743e0a2020203c2f70726f70657274793e">
            <field name="xml.attribute" showname="name=&quot;geometry&quot;&gt;" size="15" pos="1157" show="name=&quot;geometry&quot;" value="6e616d653d2267656f6d6574727922"/>
            <field name="xml.tag" showname="&lt;rect&gt;" size="98" pos="1178" show="&lt;rect&gt;" value="3c726563743e0a20202020203c783e3533303c2f783e0a20202020203c793e33303c2f793e0a20202020203c77696474683e3133313c2f77696474683e0a20202020203c6865696768743e31373c2f6865696768743e0a202020203c2f726563743e">
              <field name="xml.tag" showname="&lt;x&gt;" size="10" pos="1190" show="&lt;x&gt;" value="3c783e3533303c2f783e">
                <field name="xml.cdata" showname="530" size="3" pos="1193" show="530" value="353330"/>
                <field name="" show="&lt;/x&gt;" size="4" pos="1196" value="3c2f783e"/>
              </field>
              <field name="xml.tag" showname="&lt;y&gt;" size="9" pos="1206" show="&lt;y&gt;" value="3c793e33303c2f793e">
                <field name="xml.cdata" showname="30" size="2" pos="1209" show="30" value="3330"/>
                <field name="" show="&lt;/y&gt;" size="4" pos="1211" value="3c2f793e"/>
              </field>
              <field name="xml.tag" showname="&lt;width&gt;" size="18" pos="1221" show="&lt;width&gt;" value="3c77696474683e3133313c2f77696474683e">
                <field name="xml.cdata" showname="131" size="3" pos="1228" show="131" value="313331"/>
                <field name="" show="&lt;/width&gt;" size="8" pos="1231" value="3c2f77696474683e"/>
              </field>
              <field name="xml.tag" showname="&lt;height&gt;" size="19" pos="1245" show="&lt;height&gt;" value="3c6865696768743e31373c2f6865696768743e">
                <field name="xml.cdata" showname="17" size="2" pos="1253" show="17" value="3137"/>
                <field name="" show="&lt;/height&gt;" size="9" pos="1255" value="3c2f6865696768743e"/>
              </field>
              <field name="" show="&lt;/rect&gt;" size="7" pos="1269" value="3c2f726563743e"/>
            </field>
            <field name="" show="&lt;/property&gt;" size="11" pos="1280" value="3c2f70726f70657274793e"/>
          </field>
          <field name="xml.tag" showname="&lt;property" size="73" pos="1295" show="&lt;property name=&quot;text&quot;&gt;" value="3c70726f7065727479206e616d653d2274657874223e0a202020203c737472696e673e44697373656374656420446174613c2f737472696e673e0a2020203c2f70726f70657274793e">
            <field name="xml.attribute" showname="name=&quot;text&quot;&gt;" size="11" pos="1305" show="name=&quot;text&quot;" value="6e616d653d227465787422"/>
            <field name="xml.tag" showname="&lt;string&gt;" size="31" pos="1322" show="&lt;string&gt;" value="3c737472696e673e44697373656374656420446174613c2f737472696e673e">
              <field name="xml.cdata" showname="Dissected Data" size="14" pos="1330" show="Dissected Data" value="4469737365637465642044617461"/>
              <field name="" show="&lt;/string&gt;" size="9" pos="1344" value="3c2f737472696e673e"/>
            </field>
            <field name="" show="&lt;/property&gt;" size="11" pos="1357" value="3c2f70726f70657274793e"/>
          </field>
          <field name="" show="&lt;/widget&gt;" size="9" pos="1371" value="3c2f7769646765743e"/>
        </field>
        <field name="xml.tag" showname="&lt;widget" size="272" pos="1383" show="&lt;widget class=&quot;QLabel&quot; name=&quot;label_2&quot;&gt;" value="3c77696467657420636c6173733d22514c6162656c22206e616d653d226c6162656c5f32223e0a2020203c70726f7065727479206e616d653d2267656f6d65747279223e0a202020203c726563743e0a20202020203c783e303c2f783e0a20202020203c793e33303c2f793e0a20202020203c77696474683e3130313c2f77696474683e0a20202020203c6865696768743e31373c2f6865696768743e0a202020203c2f726563743e0a2020203c2f70726f70657274793e0a2020203c70726f7065727479206e616d653d2274657874223e0a202020203c737472696e673e5061636b65742053747265616d3c2f737472696e673e0a2020203c2f70726f70657274793e0a20203c2f7769646765743e">
          <field name="xml.attribute" showname="class=&quot;QLabel&quot;" size="14" pos="1391" show="class=&quot;QLabel&quot;" value="636c6173733d22514c6162656c22"/>
          <field name="xml.attribute" showname="name=&quot;label_2&quot;&gt;" size="14" pos="1406" show="name=&quot;label_2&quot;" value="6e616d653d226c6162656c5f3222"/>
          <field name="xml.tag" showname="&lt;property" size="142" pos="1425" show="&lt;property name=&quot;geometry&quot;&gt;" value="3c70726f7065727479206e616d653d2267656f6d65747279223e0a202020203c726563743e0a20202020203c783e303c2f783e0a20202020203c793e33303c2f793e0a20202020203c77696474683e3130313c2f77696474683e0a20202020203c6865696768743e31373c2f6865696768743e0a202020203c2f726563743e0a2020203c2f70726f70657274793e">
            <field name="xml.attribute" showname="name=&quot;geometry&quot;&gt;" size="15" pos="1435" show="name=&quot;geometry&quot;" value="6e616d653d2267656f6d6574727922"/>
            <field name="xml.tag" showname="&lt;rect&gt;" size="96" pos="1456" show="&lt;rect&gt;" value="3c726563743e0a20202020203c783e303c2f783e0a20202020203c793e33303c2f793e0a20202020203c77696474683e3130313c2f77696474683e0a20202020203c6865696768743e31373c2f6865696768743e0a202020203c2f726563743e">
              <field name="xml.tag" showname="&lt;x&gt;" size="8" pos="1468" show="&lt;x&gt;" value="3c783e303c2f783e">
                <field name="xml.cdata" showname="0" size="1" pos="1471" show="0" value="30"/>
                <field name="" show="&lt;/x&gt;" size="4" pos="1472" value="3c2f783e"/>
              </field>
              <field name="xml.tag" showname="&lt;y&gt;" size="9" pos="1482" show="&lt;y&gt;" value="3c793e33303c2f793e">
                <field name="xml.cdata" showname="30" size="2" pos="1485" show="30" value="3330"/>
                <field name="" show="&lt;/y&gt;" size="4" pos="1487" value="3c2f793e"/>
              </field>
              <field name="xml.tag" showname="&lt;width&gt;" size="18" pos="1497" show="&lt;width&gt;" value="3c77696474683e3130313c2f77696474683e">
                <field name="xml.cdata" showname="101" size="3" pos="1504" show="101" value="313031"/>
                <field name="" show="&lt;/width&gt;" size="8" pos="1507" value="3c2f77696474683e"/>
              </field>
              <field name="xml.tag" showname="&lt;height&gt;" size="19" pos="1521" show="&lt;height&gt;" value="3c6865696768743e31373c2f6865696768743e">
                <field name="xml.cdata" showname="17" size="2" pos="1529" show="17" value="3137"/>
                <field name="" show="&lt;/height&gt;" size="9" pos="1531" value="3c2f6865696768743e"/>
              </field>
              <field name="" show="&lt;/rect&gt;" size="7" pos="1545" value="3c2f726563743e"/>
            </field>
            <field name="" show="&lt;/property&gt;" size="11" pos="1556" value="3c2f70726f70657274793e"/>
          </field>
          <field name="xml.tag" showname="&lt;property" size="72" pos="1571" show="&lt;property name=&quot;text&quot;&gt;" value="3c70726f7065727479206e616d653d2274657874223e0a202020203c737472696e673e5061636b65742053747265616d3c2f737472696e673e0a2020203c2f70726f70657274793e">
            <field name="xml.attribute" showname="name=&quot;text&quot;&gt;" size="11" pos="1581" show="name=&quot;text&quot;" value="6e616d653d227465787422"/>
            <field name="xml.tag" showname="&lt;string&gt;" size="30" pos="1598" show="&lt;string&gt;" value="3c737472696e673e5061636b65742053747265616d3c2f737472696e673e">
              <field name="xml.cdata" showname="Packet Stream" size="13" pos="1606" show="Packet Stream" value="5061636b65742053747265616d"/>
              <field name="" show="&lt;/string&gt;" size="9" pos="1619" value="3c2f737472696e673e"/>
            </field>
            <field name="" show="&lt;/property&gt;" size="11" pos="1632" value="3c2f70726f70657274793e"/>
          </field>
          <field name="" show="&lt;/widget&gt;" size="9" pos="1646" value="3c2f7769646765743e"/>
        </field>
        <field name="" show="&lt;/widget&gt;" size="9" pos="1657" value="3c2f7769646765743e"/>
      </field>
      <field name="xml.tag" showname="&lt;resources/&gt;" size="12" pos="1668" show="&lt;resources/&gt;" value="3c7265736f75726365732f3e"/>
      <field name="xml.tag" showname="&lt;connections/&gt;" size="14" pos="1682" show="&lt;connections/&gt;" value="3c636f6e6e656374696f6e732f3e"/>
      <field name="" show="&lt;/ui&gt;" size="5" pos="1697" value="3c2f75693e"/>
    </field>
  </proto>
</packet>


</pdml>
